target datalayout = "e-m:e-p270:32:32-p271:32:32-p272:64:64-i64:64-i128:128-f80:128-n8:16:32:64-S128"
target triple = "x86_64-pc-linux-gnu"

%struct.CRYPTO_REF_COUNT = type { i32 }
%struct.crypto_ex_data_st = type { ptr, ptr }
%struct.evp_pkey_st = type { i32, i32, ptr, ptr, ptr, %union.legacy_pkey_st, %union.legacy_pkey_st, %struct.CRYPTO_REF_COUNT, ptr, ptr, i32, i8, %struct.crypto_ex_data_st, ptr, ptr, i64, ptr, i64, %struct.anon }
%union.legacy_pkey_st = type { ptr }
%struct.anon = type { i32, i32, i32 }

@.str.13 = private unnamed_addr constant [2 x i8] c"p\00", align 1
@.str.14 = private unnamed_addr constant [2 x i8] c"q\00", align 1
@.str.15 = private unnamed_addr constant [2 x i8] c"g\00", align 1
@.str.16 = private unnamed_addr constant [4 x i8] c"pub\00", align 1
@.str.17 = private unnamed_addr constant [5 x i8] c"priv\00", align 1

; Function Attrs: nounwind uwtable
define internal i32 @dsa_pkey_export_to(ptr noundef %0, ptr noundef %1, ptr noundef %2, ptr noundef %3, ptr noundef %4) #0 {
  %6 = alloca i32, align 4
  %7 = alloca ptr, align 8
  %8 = alloca ptr, align 8
  %9 = alloca ptr, align 8
  %10 = alloca ptr, align 8
  %11 = alloca ptr, align 8
  %12 = alloca ptr, align 8
  %13 = alloca ptr, align 8
  %14 = alloca ptr, align 8
  %15 = alloca ptr, align 8
  %16 = alloca ptr, align 8
  %17 = alloca ptr, align 8
  %18 = alloca ptr, align 8
  %19 = alloca ptr, align 8
  %20 = alloca i32, align 4
  %21 = alloca i32, align 4
  %22 = alloca i32, align 4
  store ptr %0, ptr %7, align 8, !tbaa !3
  store ptr %1, ptr %8, align 8, !tbaa !18
  store ptr %2, ptr %9, align 8, !tbaa !18
  store ptr %3, ptr %10, align 8, !tbaa !64
  store ptr %4, ptr %11, align 8, !tbaa !23
  call void @llvm.lifetime.start.p0(i64 8, ptr %12) #3
  %23 = load ptr, ptr %7, align 8, !tbaa !3
  %24 = getelementptr inbounds nuw %struct.evp_pkey_st, ptr %23, i32 0, i32 5
  %25 = load ptr, ptr %24, align 8, !tbaa !37
  store ptr %25, ptr %12, align 8, !tbaa !12
  call void @llvm.lifetime.start.p0(i64 8, ptr %13) #3
  call void @llvm.lifetime.start.p0(i64 8, ptr %14) #3
  %26 = load ptr, ptr %12, align 8, !tbaa !12
  %27 = call ptr @DSA_get0_p(ptr noundef %26)
  store ptr %27, ptr %14, align 8, !tbaa !62
  call void @llvm.lifetime.start.p0(i64 8, ptr %15) #3
  %28 = load ptr, ptr %12, align 8, !tbaa !12
  %29 = call ptr @DSA_get0_g(ptr noundef %28)
  store ptr %29, ptr %15, align 8, !tbaa !62
  call void @llvm.lifetime.start.p0(i64 8, ptr %16) #3
  %30 = load ptr, ptr %12, align 8, !tbaa !12
  %31 = call ptr @DSA_get0_q(ptr noundef %30)
  store ptr %31, ptr %16, align 8, !tbaa !62
  call void @llvm.lifetime.start.p0(i64 8, ptr %17) #3
  %32 = load ptr, ptr %12, align 8, !tbaa !12
  %33 = call ptr @DSA_get0_pub_key(ptr noundef %32)
  store ptr %33, ptr %17, align 8, !tbaa !62
  call void @llvm.lifetime.start.p0(i64 8, ptr %18) #3
  %34 = load ptr, ptr %12, align 8, !tbaa !12
  %35 = call ptr @DSA_get0_priv_key(ptr noundef %34)
  store ptr %35, ptr %18, align 8, !tbaa !62
  call void @llvm.lifetime.start.p0(i64 8, ptr %19) #3
  call void @llvm.lifetime.start.p0(i64 4, ptr %20) #3
  store i32 0, ptr %20, align 4, !tbaa !16
  call void @llvm.lifetime.start.p0(i64 4, ptr %21) #3
  store i32 0, ptr %21, align 4, !tbaa !16
  %36 = load ptr, ptr %14, align 8, !tbaa !62
  %37 = icmp eq ptr %36, null
  br i1 %37, label %44, label %38

38:                                               ; preds = %5
  %39 = load ptr, ptr %16, align 8, !tbaa !62
  %40 = icmp eq ptr %39, null
  br i1 %40, label %44, label %41

41:                                               ; preds = %38
  %42 = load ptr, ptr %15, align 8, !tbaa !62
  %43 = icmp eq ptr %42, null
  br i1 %43, label %44, label %45

44:                                               ; preds = %41, %38, %5
  store i32 0, ptr %6, align 4
  store i32 1, ptr %22, align 4
  br label %107

45:                                               ; preds = %41
  %46 = call ptr @OSSL_PARAM_BLD_new()
  store ptr %46, ptr %13, align 8, !tbaa !65
  %47 = load ptr, ptr %13, align 8, !tbaa !65
  %48 = icmp eq ptr %47, null
  br i1 %48, label %49, label %50

49:                                               ; preds = %45
  store i32 0, ptr %6, align 4
  store i32 1, ptr %22, align 4
  br label %107

50:                                               ; preds = %45
  %51 = load ptr, ptr %13, align 8, !tbaa !65
  %52 = load ptr, ptr %14, align 8, !tbaa !62
  %53 = call i32 @OSSL_PARAM_BLD_push_BN(ptr noundef %51, ptr noundef @.str.13, ptr noundef %52)
  %54 = icmp ne i32 %53, 0
  br i1 %54, label %55, label %65

55:                                               ; preds = %50
  %56 = load ptr, ptr %13, align 8, !tbaa !65
  %57 = load ptr, ptr %16, align 8, !tbaa !62
  %58 = call i32 @OSSL_PARAM_BLD_push_BN(ptr noundef %56, ptr noundef @.str.14, ptr noundef %57)
  %59 = icmp ne i32 %58, 0
  br i1 %59, label %60, label %65

60:                                               ; preds = %55
  %61 = load ptr, ptr %13, align 8, !tbaa !65
  %62 = load ptr, ptr %15, align 8, !tbaa !62
  %63 = call i32 @OSSL_PARAM_BLD_push_BN(ptr noundef %61, ptr noundef @.str.15, ptr noundef %62)
  %64 = icmp ne i32 %63, 0
  br i1 %64, label %66, label %65

65:                                               ; preds = %60, %55, %50
  br label %104

66:                                               ; preds = %60
  %67 = load i32, ptr %20, align 4, !tbaa !16
  %68 = or i32 %67, 4
  store i32 %68, ptr %20, align 4, !tbaa !16
  %69 = load ptr, ptr %17, align 8, !tbaa !62
  %70 = icmp ne ptr %69, null
  br i1 %70, label %71, label %80

71:                                               ; preds = %66
  %72 = load ptr, ptr %13, align 8, !tbaa !65
  %73 = load ptr, ptr %17, align 8, !tbaa !62
  %74 = call i32 @OSSL_PARAM_BLD_push_BN(ptr noundef %72, ptr noundef @.str.16, ptr noundef %73)
  %75 = icmp ne i32 %74, 0
  br i1 %75, label %77, label %76

76:                                               ; preds = %71
  br label %104

77:                                               ; preds = %71
  %78 = load i32, ptr %20, align 4, !tbaa !16
  %79 = or i32 %78, 2
  store i32 %79, ptr %20, align 4, !tbaa !16
  br label %80

80:                                               ; preds = %77, %66
  %81 = load ptr, ptr %18, align 8, !tbaa !62
  %82 = icmp ne ptr %81, null
  br i1 %82, label %83, label %92

83:                                               ; preds = %80
  %84 = load ptr, ptr %13, align 8, !tbaa !65
  %85 = load ptr, ptr %18, align 8, !tbaa !62
  %86 = call i32 @OSSL_PARAM_BLD_push_BN(ptr noundef %84, ptr noundef @.str.17, ptr noundef %85)
  %87 = icmp ne i32 %86, 0
  br i1 %87, label %89, label %88

88:                                               ; preds = %83
  br label %104

89:                                               ; preds = %83
  %90 = load i32, ptr %20, align 4, !tbaa !16
  %91 = or i32 %90, 1
  store i32 %91, ptr %20, align 4, !tbaa !16
  br label %92

92:                                               ; preds = %89, %80
  %93 = load ptr, ptr %13, align 8, !tbaa !65
  %94 = call ptr @OSSL_PARAM_BLD_to_param(ptr noundef %93)
  store ptr %94, ptr %19, align 8, !tbaa !67
  %95 = icmp eq ptr %94, null
  br i1 %95, label %96, label %97

96:                                               ; preds = %92
  br label %104

97:                                               ; preds = %92
  %98 = load ptr, ptr %9, align 8, !tbaa !18
  %99 = load ptr, ptr %8, align 8, !tbaa !18
  %100 = load i32, ptr %20, align 4, !tbaa !16
  %101 = load ptr, ptr %19, align 8, !tbaa !67
  %102 = call i32 %98(ptr noundef %99, i32 noundef %100, ptr noundef %101)
  store i32 %102, ptr %21, align 4, !tbaa !16
  %103 = load ptr, ptr %19, align 8, !tbaa !67
  call void @OSSL_PARAM_free(ptr noundef %103)
  br label %104

104:                                              ; preds = %97, %96, %88, %76, %65
  %105 = load ptr, ptr %13, align 8, !tbaa !65
  call void @OSSL_PARAM_BLD_free(ptr noundef %105)
  %106 = load i32, ptr %21, align 4, !tbaa !16
  store i32 %106, ptr %6, align 4
  store i32 1, ptr %22, align 4
  br label %107

107:                                              ; preds = %104, %49, %44
  call void @llvm.lifetime.end.p0(i64 4, ptr %21) #3
  call void @llvm.lifetime.end.p0(i64 4, ptr %20) #3
  call void @llvm.lifetime.end.p0(i64 8, ptr %19) #3
  call void @llvm.lifetime.end.p0(i64 8, ptr %18) #3
  call void @llvm.lifetime.end.p0(i64 8, ptr %17) #3
  call void @llvm.lifetime.end.p0(i64 8, ptr %16) #3
  call void @llvm.lifetime.end.p0(i64 8, ptr %15) #3
  call void @llvm.lifetime.end.p0(i64 8, ptr %14) #3
  call void @llvm.lifetime.end.p0(i64 8, ptr %13) #3
  call void @llvm.lifetime.end.p0(i64 8, ptr %12) #3
  %108 = load i32, ptr %6, align 4
  ret i32 %108
}