; Function Attrs: nounwind uwtable
define internal i32 @dsa_pkey_export_to(ptr noundef readonly captures(none) %0, ptr noundef %1, ptr noundef readonly captures(none) %2, ptr readnone captures(none) %3, ptr readnone captures(none) %4) #0 {
  %6 = getelementptr inbounds nuw i8, ptr %0, i64 32
  %7 = load ptr, ptr %6, align 8, !tbaa !29
  %8 = tail call ptr @DSA_get0_p(ptr noundef %7) #5
  %9 = tail call ptr @DSA_get0_g(ptr noundef %7) #5
  %10 = tail call ptr @DSA_get0_q(ptr noundef %7) #5
  %11 = tail call ptr @DSA_get0_pub_key(ptr noundef %7) #5
  %12 = tail call ptr @DSA_get0_priv_key(ptr noundef %7) #5
  %13 = icmp eq ptr %8, null
  %14 = icmp eq ptr %10, null
  %or.cond = select i1 %13, i1 true, i1 %14
  %15 = icmp eq ptr %9, null
  %or.cond3 = select i1 %or.cond, i1 true, i1 %15
  br i1 %or.cond3, label %39, label %16

16:                                               ; preds = %5
  %17 = tail call ptr @OSSL_PARAM_BLD_new() #5
  %18 = icmp eq ptr %17, null
  br i1 %18, label %39, label %19

19:                                               ; preds = %16
  %20 = tail call i32 @OSSL_PARAM_BLD_push_BN(ptr noundef nonnull %17, ptr noundef nonnull @.str.13, ptr noundef nonnull %8) #5
  %.not = icmp eq i32 %20, 0
  br i1 %.not, label %38, label %21

21:                                               ; preds = %19
  %22 = tail call i32 @OSSL_PARAM_BLD_push_BN(ptr noundef nonnull %17, ptr noundef nonnull @.str.14, ptr noundef nonnull %10) #5
  %.not45 = icmp eq i32 %22, 0
  br i1 %.not45, label %38, label %23

23:                                               ; preds = %21
  %24 = tail call i32 @OSSL_PARAM_BLD_push_BN(ptr noundef nonnull %17, ptr noundef nonnull @.str.15, ptr noundef nonnull %9) #5
  %.not46 = icmp eq i32 %24, 0
  br i1 %.not46, label %38, label %25

25:                                               ; preds = %23
  %.not47 = icmp eq ptr %11, null
  br i1 %.not47, label %28, label %26

26:                                               ; preds = %25
  %27 = tail call i32 @OSSL_PARAM_BLD_push_BN(ptr noundef nonnull %17, ptr noundef nonnull @.str.16, ptr noundef nonnull %11) #5
  %.not48 = icmp eq i32 %27, 0
  br i1 %.not48, label %38, label %28

28:                                               ; preds = %26, %25
  %.036 = phi i32 [ 4, %25 ], [ 6, %26 ]
  %.not49 = icmp eq ptr %12, null
  br i1 %.not49, label %33, label %29

29:                                               ; preds = %28
  %30 = tail call i32 @OSSL_PARAM_BLD_push_BN(ptr noundef nonnull %17, ptr noundef nonnull @.str.17, ptr noundef nonnull %12) #5
  %.not50 = icmp eq i32 %30, 0
  br i1 %.not50, label %38, label %31

31:                                               ; preds = %29
  %32 = or disjoint i32 %.036, 1
  br label %33

33:                                               ; preds = %31, %28
  %.1 = phi i32 [ %32, %31 ], [ %.036, %28 ]
  %34 = tail call ptr @OSSL_PARAM_BLD_to_param(ptr noundef nonnull %17) #5
  %35 = icmp eq ptr %34, null
  br i1 %35, label %38, label %36

36:                                               ; preds = %33
  %37 = tail call i32 %2(ptr noundef %1, i32 noundef %.1, ptr noundef nonnull %34) #5
  tail call void @OSSL_PARAM_free(ptr noundef nonnull %34) #5
  br label %38

38:                                               ; preds = %33, %29, %26, %19, %21, %23, %36
  %.0 = phi i32 [ 0, %33 ], [ %37, %36 ], [ 0, %29 ], [ 0, %26 ], [ 0, %23 ], [ 0, %21 ], [ 0, %19 ]
  tail call void @OSSL_PARAM_BLD_free(ptr noundef nonnull %17) #5
  br label %39

39:                                               ; preds = %16, %5, %38
  %.037 = phi i32 [ %.0, %38 ], [ 0, %5 ], [ 0, %16 ]
  ret i32 %.037
}